target datalayout = "e-m:e-p270:32:32-p271:32:32-p272:64:64-i64:64-i128:128-f80:128-n8:16:32:64-S128"
target triple = "x86_64-pc-linux-gnu"

%struct.RV34DSPContext = type { [4 x [16 x ptr]], [4 x [16 x ptr]], [3 x ptr], [3 x ptr], [2 x [2 x ptr]], ptr, ptr, ptr, ptr, [2 x ptr], [2 x ptr], [2 x ptr] }

; Function Attrs: cold nounwind optsize uwtable
define void @ff_rv34dsp_init(ptr noundef %0) #0 {
  %2 = alloca ptr, align 8
  store ptr %0, ptr %2, align 8, !tbaa !4
  %3 = load ptr, ptr %2, align 8, !tbaa !4
  %4 = getelementptr inbounds nuw %struct.RV34DSPContext, ptr %3, i32 0, i32 5
  store ptr @rv34_inv_transform_noround_c, ptr %4, align 8, !tbaa !9
  %5 = load ptr, ptr %2, align 8, !tbaa !4
  %6 = getelementptr inbounds nuw %struct.RV34DSPContext, ptr %5, i32 0, i32 6
  store ptr @rv34_inv_transform_dc_noround_c, ptr %6, align 8, !tbaa !11
  %7 = load ptr, ptr %2, align 8, !tbaa !4
  %8 = getelementptr inbounds nuw %struct.RV34DSPContext, ptr %7, i32 0, i32 7
  store ptr @rv34_idct_add_c, ptr %8, align 8, !tbaa !12
  %9 = load ptr, ptr %2, align 8, !tbaa !4
  %10 = getelementptr inbounds nuw %struct.RV34DSPContext, ptr %9, i32 0, i32 8
  store ptr @rv34_idct_dc_add_c, ptr %10, align 8, !tbaa !13
  ret void
}