; Function Attrs: cold mustprogress nofree norecurse nosync nounwind optsize willreturn memory(argmem: write) uwtable
define void @ff_rv34dsp_init(ptr noundef writeonly captures(none) initializes((1104, 1136)) %0) local_unnamed_addr #0 {
  %2 = getelementptr inbounds nuw i8, ptr %0, i64 1104
  store ptr @rv34_inv_transform_noround_c, ptr %2, align 8, !tbaa !4
  %3 = getelementptr inbounds nuw i8, ptr %0, i64 1112
  store ptr @rv34_inv_transform_dc_noround_c, ptr %3, align 8, !tbaa !9
  %4 = getelementptr inbounds nuw i8, ptr %0, i64 1120
  store ptr @rv34_idct_add_c, ptr %4, align 8, !tbaa !10
  %5 = getelementptr inbounds nuw i8, ptr %0, i64 1128
  store ptr @rv34_idct_dc_add_c, ptr %5, align 8, !tbaa !11
  ret void
}